; Function Attrs: nounwind uwtable
define ptr @l_Lean_Meta_simpAll(ptr noundef %0, ptr noundef %1, ptr noundef %2, ptr noundef readonly captures(none) %3, ptr noundef %4, ptr noundef %5, ptr noundef %6, ptr noundef %7, ptr noundef %8) local_unnamed_addr #0 {
  %10 = getelementptr inbounds nuw i8, ptr %3, i64 8
  %11 = load ptr, ptr %10, align 8, !tbaa !9
  %12 = getelementptr inbounds nuw i8, ptr %3, i64 16
  %13 = load ptr, ptr %12, align 8, !tbaa !9
  %14 = load ptr, ptr @l_Lean_addTrace___at___private_Lean_Meta_Tactic_Simp_SimpAll_0__Lean_Meta_SimpAll_loop___spec__4___closed__2, align 8, !tbaa !9
  %15 = ptrtoint ptr %13 to i64
  %16 = and i64 %15, 1
  %.not = icmp eq i64 %16, 0
  br i1 %.not, label %17, label %lean_inc.exit37

17:                                               ; preds = %9
  %.val.i = load i32, ptr %13, align 4, !tbaa !4
  %18 = icmp sgt i32 %.val.i, 0
  br i1 %18, label %19, label %21, !prof !11

19:                                               ; preds = %17
  %20 = add nuw i32 %.val.i, 1
  store i32 %20, ptr %13, align 4, !tbaa !4
  br label %lean_inc.exit37

21:                                               ; preds = %17
  %.not.i = icmp eq i32 %.val.i, 0
  br i1 %.not.i, label %lean_inc.exit37, label %22

22:                                               ; preds = %21
  tail call void @lean_inc_ref_cold(ptr noundef nonnull %13) #4
  br label %lean_inc.exit37

lean_inc.exit37:                                  ; preds = %22, %21, %19, %9
  %23 = ptrtoint ptr %11 to i64
  %24 = and i64 %23, 1
  %.not50 = icmp eq i64 %24, 0
  br i1 %.not50, label %25, label %lean_inc.exit36

25:                                               ; preds = %lean_inc.exit37
  %.val.i38 = load i32, ptr %11, align 4, !tbaa !4
  %26 = icmp sgt i32 %.val.i38, 0
  br i1 %26, label %27, label %29, !prof !11

27:                                               ; preds = %25
  %28 = add nuw i32 %.val.i38, 1
  store i32 %28, ptr %11, align 4, !tbaa !4
  br label %lean_inc.exit36

29:                                               ; preds = %25
  %.not.i39 = icmp eq i32 %.val.i38, 0
  br i1 %.not.i39, label %lean_inc.exit36, label %30

30:                                               ; preds = %29
  tail call void @lean_inc_ref_cold(ptr noundef nonnull %11) #4
  br label %lean_inc.exit36

lean_inc.exit36:                                  ; preds = %30, %29, %27, %lean_inc.exit37
  %31 = ptrtoint ptr %1 to i64
  %32 = and i64 %31, 1
  %.not51 = icmp eq i64 %32, 0
  br i1 %.not51, label %33, label %lean_inc.exit35

33:                                               ; preds = %lean_inc.exit36
  %.val.i41 = load i32, ptr %1, align 4, !tbaa !4
  %34 = icmp sgt i32 %.val.i41, 0
  br i1 %34, label %35, label %37, !prof !11

35:                                               ; preds = %33
  %36 = add nuw i32 %.val.i41, 1
  store i32 %36, ptr %1, align 4, !tbaa !4
  br label %lean_inc.exit35

37:                                               ; preds = %33
  %.not.i42 = icmp eq i32 %.val.i41, 0
  br i1 %.not.i42, label %lean_inc.exit35, label %38

38:                                               ; preds = %37
  tail call void @lean_inc_ref_cold(ptr noundef nonnull %1) #4
  br label %lean_inc.exit35

lean_inc.exit35:                                  ; preds = %38, %37, %35, %lean_inc.exit36
  %39 = ptrtoint ptr %0 to i64
  %40 = and i64 %39, 1
  %.not52 = icmp eq i64 %40, 0
  br i1 %.not52, label %41, label %lean_inc.exit34

41:                                               ; preds = %lean_inc.exit35
  %.val.i44 = load i32, ptr %0, align 4, !tbaa !4
  %42 = icmp sgt i32 %.val.i44, 0
  br i1 %42, label %43, label %45, !prof !11

43:                                               ; preds = %41
  %44 = add nuw i32 %.val.i44, 1
  store i32 %44, ptr %0, align 4, !tbaa !4
  br label %lean_inc.exit34

45:                                               ; preds = %41
  %.not.i45 = icmp eq i32 %.val.i44, 0
  br i1 %.not.i45, label %lean_inc.exit34, label %46

46:                                               ; preds = %45
  tail call void @lean_inc_ref_cold(ptr noundef nonnull %0) #4
  br label %lean_inc.exit34

lean_inc.exit34:                                  ; preds = %46, %45, %43, %lean_inc.exit35
  tail call void @lean_inc_heartbeat() #4
  %47 = tail call noalias ptr @mi_malloc_small(i64 noundef 64) #4
  %48 = icmp eq ptr %47, null
  br i1 %48, label %49, label %lean_alloc_ctor.exit

49:                                               ; preds = %lean_inc.exit34
  tail call void @lean_internal_panic_out_of_memory() #5
  unreachable

lean_alloc_ctor.exit:                             ; preds = %lean_inc.exit34
  %50 = getelementptr inbounds nuw i8, ptr %47, i64 4
  %51 = getelementptr inbounds nuw i8, ptr %47, i64 56
  store i64 0, ptr %51, align 8, !tbaa !12
  store i32 1, ptr %47, align 4, !tbaa !4
  store i32 393280, ptr %50, align 4
  %52 = getelementptr inbounds nuw i8, ptr %47, i64 8
  store ptr %0, ptr %52, align 8, !tbaa !9
  %53 = getelementptr inbounds nuw i8, ptr %47, i64 16
  store ptr %14, ptr %53, align 8, !tbaa !9
  %54 = getelementptr inbounds nuw i8, ptr %47, i64 24
  store ptr %1, ptr %54, align 8, !tbaa !9
  %55 = getelementptr inbounds nuw i8, ptr %47, i64 32
  store ptr %2, ptr %55, align 8, !tbaa !9
  %56 = getelementptr inbounds nuw i8, ptr %47, i64 40
  store ptr %11, ptr %56, align 8, !tbaa !9
  %57 = getelementptr inbounds nuw i8, ptr %47, i64 48
  store ptr %13, ptr %57, align 8, !tbaa !9
  br i1 %.not52, label %58, label %lean_inc.exit

58:                                               ; preds = %lean_alloc_ctor.exit
  %.val.i47 = load i32, ptr %0, align 4, !tbaa !4
  %59 = icmp sgt i32 %.val.i47, 0
  br i1 %59, label %60, label %62, !prof !11

60:                                               ; preds = %58
  %61 = add nuw i32 %.val.i47, 1
  store i32 %61, ptr %0, align 4, !tbaa !4
  br label %lean_inc.exit

62:                                               ; preds = %58
  %.not.i48 = icmp eq i32 %.val.i47, 0
  br i1 %.not.i48, label %lean_inc.exit, label %63

63:                                               ; preds = %62
  tail call void @lean_inc_ref_cold(ptr noundef nonnull %0) #4
  br label %lean_inc.exit

lean_inc.exit:                                    ; preds = %63, %62, %60, %lean_alloc_ctor.exit
  tail call void @lean_inc_heartbeat() #4
  %64 = tail call noalias ptr @mi_malloc_small(i64 noundef 48) #4
  %65 = icmp eq ptr %64, null
  br i1 %65, label %66, label %lean_alloc_closure.exit

66:                                               ; preds = %lean_inc.exit
  tail call void @lean_internal_panic_out_of_memory() #5
  unreachable

lean_alloc_closure.exit:                          ; preds = %lean_inc.exit
  %67 = getelementptr inbounds nuw i8, ptr %64, i64 4
  store i32 1, ptr %64, align 4, !tbaa !4
  store i32 -184549328, ptr %67, align 4
  %68 = getelementptr inbounds nuw i8, ptr %64, i64 8
  store ptr @l_Lean_Meta_simpAll___lambda__2___boxed, ptr %68, align 8, !tbaa !9
  %69 = getelementptr inbounds nuw i8, ptr %64, i64 16
  store i16 8, ptr %69, align 8, !tbaa !14
  %70 = getelementptr inbounds nuw i8, ptr %64, i64 18
  store i16 3, ptr %70, align 2, !tbaa !14
  %71 = getelementptr inbounds nuw i8, ptr %64, i64 24
  store ptr %47, ptr %71, align 8, !tbaa !9
  %72 = getelementptr inbounds nuw i8, ptr %64, i64 32
  store ptr %1, ptr %72, align 8, !tbaa !9
  %73 = getelementptr inbounds nuw i8, ptr %64, i64 40
  store ptr %0, ptr %73, align 8, !tbaa !9
  %74 = tail call ptr @l_Lean_MVarId_withContext___at___private_Lean_Meta_SynthInstance_0__Lean_Meta_synthPendingImp___spec__2___rarg(ptr noundef %0, ptr noundef nonnull %64, ptr noundef %4, ptr noundef %5, ptr noundef %6, ptr noundef %7, ptr noundef %8) #4
  ret ptr %74
}